; Function Attrs: mustprogress nofree norecurse nosync nounwind willreturn memory(read, inaccessiblemem: none) uwtable
define noundef range(i64 -576460752303423488, 576460752303423488) i64 @_ZNK19OpenColorIO_v2_5dev9FileRules13getNumEntriesEv(ptr noundef nonnull readonly align 8 captures(none) dereferenceable(16) %0) local_unnamed_addr #9 align 2 {
  %2 = getelementptr inbounds nuw i8, ptr %0, i64 8
  %3 = load ptr, ptr %2, align 8, !tbaa !6
  %4 = getelementptr inbounds nuw i8, ptr %3, i64 8
  %5 = load ptr, ptr %4, align 8, !tbaa !14
  %6 = load ptr, ptr %3, align 8, !tbaa !11
  %7 = ptrtoint ptr %5 to i64
  %8 = ptrtoint ptr %6 to i64
  %9 = sub i64 %7, %8
  %10 = ashr exact i64 %9, 4
  ret i64 %10
}